target datalayout = "e-m:e-p270:32:32-p271:32:32-p272:64:64-i64:64-i128:128-f80:128-n8:16:32:64-S128"
target triple = "x86_64-pc-linux-gnu"

%struct.HashJoinTableData = type { i32, i32, i32, i32, i32, %union.anon, i8, ptr, i32, i32, ptr, i32, i32, i32, i32, i8, double, double, double, ptr, ptr, i64, i64, i64, i64, i64, ptr, ptr, ptr, ptr, ptr, ptr, ptr, ptr, i64 }
%union.anon = type { ptr }
%struct.ParallelHashJoinState = type { i64, i64, i32, i32, i32, i32, i64, i32, i64, i64, %struct.LWLock, %struct.Barrier, %struct.Barrier, %struct.Barrier, %struct.pg_atomic_uint32, %struct.SharedFileSet }
%struct.LWLock = type { i16, %struct.pg_atomic_uint32, %struct.proclist_head }
%struct.proclist_head = type { i32, i32 }
%struct.Barrier = type { i8, i32, i32, i32, i32, i8, %struct.ConditionVariable }
%struct.ConditionVariable = type { i8, %struct.proclist_head }
%struct.pg_atomic_uint32 = type { i32 }
%struct.SharedFileSet = type { %struct.FileSet, i8, i32 }
%struct.FileSet = type { i32, i32, i32, [8 x i32] }
%struct.ParallelHashJoinBatchAccessor = type { ptr, i64, i64, i64, i64, i64, i8, i8, i8, ptr, ptr }
%struct.ParallelHashJoinBatch = type { i64, %struct.Barrier, i64, i64, i64, i64, i64, i8, i8 }
%struct.pg_atomic_uint64 = type { i64 }

; Function Attrs: inlinehint nounwind uwtable
define internal void @pg_atomic_init_u64_impl(ptr noundef %0, i64 noundef %1) #3 {
  %3 = alloca ptr, align 8
  %4 = alloca i64, align 8
  store ptr %0, ptr %3, align 8
  store i64 %1, ptr %4, align 8
  %5 = load i64, ptr %4, align 8
  %6 = load ptr, ptr %3, align 8
  %7 = getelementptr inbounds nuw %struct.pg_atomic_uint64, ptr %6, i32 0, i32 0
  store volatile i64 %5, ptr %7, align 8
  ret void
}

; Function Attrs: inlinehint nounwind uwtable
define internal void @pg_atomic_init_u64(ptr noundef %0, i64 noundef %1) #3 {
  %3 = alloca ptr, align 8
  %4 = alloca i64, align 8
  store ptr %0, ptr %3, align 8
  store i64 %1, ptr %4, align 8
  %5 = load ptr, ptr %3, align 8
  %6 = load i64, ptr %4, align 8
  call void @pg_atomic_init_u64_impl(ptr noundef %5, i64 noundef %6)
  ret void
}

; Function Attrs: nounwind uwtable
define dso_local void @ExecParallelHashTableAlloc(ptr noundef %0, i32 noundef %1) #0 {
  %3 = alloca ptr, align 8
  %4 = alloca i32, align 4
  %5 = alloca ptr, align 8
  %6 = alloca ptr, align 8
  %7 = alloca i32, align 4
  %8 = alloca i32, align 4
  store ptr %0, ptr %3, align 8
  store i32 %1, ptr %4, align 4
  call void @llvm.lifetime.start.p0(i64 8, ptr %5) #9
  %9 = load ptr, ptr %3, align 8
  %10 = getelementptr inbounds nuw %struct.HashJoinTableData, ptr %9, i32 0, i32 33
  %11 = load ptr, ptr %10, align 8
  %12 = load i32, ptr %4, align 4
  %13 = sext i32 %12 to i64
  %14 = getelementptr inbounds %struct.ParallelHashJoinBatchAccessor, ptr %11, i64 %13
  %15 = getelementptr inbounds nuw %struct.ParallelHashJoinBatchAccessor, ptr %14, i32 0, i32 0
  %16 = load ptr, ptr %15, align 8
  store ptr %16, ptr %5, align 8
  call void @llvm.lifetime.start.p0(i64 8, ptr %6) #9
  call void @llvm.lifetime.start.p0(i64 4, ptr %7) #9
  %17 = load ptr, ptr %3, align 8
  %18 = getelementptr inbounds nuw %struct.HashJoinTableData, ptr %17, i32 0, i32 32
  %19 = load ptr, ptr %18, align 8
  %20 = getelementptr inbounds nuw %struct.ParallelHashJoinState, ptr %19, i32 0, i32 4
  %21 = load i32, ptr %20, align 8
  store i32 %21, ptr %7, align 4
  call void @llvm.lifetime.start.p0(i64 4, ptr %8) #9
  %22 = load ptr, ptr %3, align 8
  %23 = getelementptr inbounds nuw %struct.HashJoinTableData, ptr %22, i32 0, i32 31
  %24 = load ptr, ptr %23, align 8
  %25 = load i32, ptr %7, align 4
  %26 = sext i32 %25 to i64
  %27 = mul i64 8, %26
  %28 = call i64 @dsa_allocate_extended(ptr noundef %24, i64 noundef %27, i32 noundef 0)
  %29 = load ptr, ptr %5, align 8
  %30 = getelementptr inbounds nuw %struct.ParallelHashJoinBatch, ptr %29, i32 0, i32 0
  store i64 %28, ptr %30, align 8
  %31 = load ptr, ptr %3, align 8
  %32 = getelementptr inbounds nuw %struct.HashJoinTableData, ptr %31, i32 0, i32 31
  %33 = load ptr, ptr %32, align 8
  %34 = load ptr, ptr %5, align 8
  %35 = getelementptr inbounds nuw %struct.ParallelHashJoinBatch, ptr %34, i32 0, i32 0
  %36 = load i64, ptr %35, align 8
  %37 = call ptr @dsa_get_address(ptr noundef %33, i64 noundef %36)
  store ptr %37, ptr %6, align 8
  store i32 0, ptr %8, align 4
  br label %38

38:                                               ; preds = %47, %2
  %39 = load i32, ptr %8, align 4
  %40 = load i32, ptr %7, align 4
  %41 = icmp slt i32 %39, %40
  br i1 %41, label %42, label %50

42:                                               ; preds = %38
  %43 = load ptr, ptr %6, align 8
  %44 = load i32, ptr %8, align 4
  %45 = sext i32 %44 to i64
  %46 = getelementptr inbounds %struct.pg_atomic_uint64, ptr %43, i64 %45
  call void @pg_atomic_init_u64(ptr noundef %46, i64 noundef 0)
  br label %47

47:                                               ; preds = %42
  %48 = load i32, ptr %8, align 4
  %49 = add i32 %48, 1
  store i32 %49, ptr %8, align 4
  br label %38, !llvm.loop !10

50:                                               ; preds = %38
  call void @llvm.lifetime.end.p0(i64 4, ptr %8) #9
  call void @llvm.lifetime.end.p0(i64 4, ptr %7) #9
  call void @llvm.lifetime.end.p0(i64 8, ptr %6) #9
  call void @llvm.lifetime.end.p0(i64 8, ptr %5) #9
  ret void
}