; Function Attrs: nounwind uwtable
define dso_local void @ExecParallelHashTableAlloc(ptr noundef readonly captures(none) %0, i32 noundef %1) local_unnamed_addr #0 {
  %3 = getelementptr inbounds nuw i8, ptr %0, i64 224
  %4 = load ptr, ptr %3, align 8
  %5 = sext i32 %1 to i64
  %6 = getelementptr inbounds %struct.ParallelHashJoinBatchAccessor, ptr %4, i64 %5
  %7 = load ptr, ptr %6, align 8
  %8 = getelementptr inbounds nuw i8, ptr %0, i64 216
  %9 = load ptr, ptr %8, align 8
  %10 = getelementptr inbounds nuw i8, ptr %9, i64 24
  %11 = load i32, ptr %10, align 8
  %12 = getelementptr inbounds nuw i8, ptr %0, i64 208
  %13 = load ptr, ptr %12, align 8
  %14 = sext i32 %11 to i64
  %15 = shl nsw i64 %14, 3
  %16 = tail call i64 @dsa_allocate_extended(ptr noundef %13, i64 noundef %15, i32 noundef 0) #16
  store i64 %16, ptr %7, align 8
  %17 = load ptr, ptr %12, align 8
  %18 = tail call ptr @dsa_get_address(ptr noundef %17, i64 noundef %16) #16
  %19 = icmp sgt i32 %11, 0
  br i1 %19, label %.lr.ph.preheader, label %._crit_edge

.lr.ph.preheader:                                 ; preds = %2
  %wide.trip.count = zext nneg i32 %11 to i64
  br label %.lr.ph

.lr.ph:                                           ; preds = %.lr.ph.preheader, %.lr.ph
  %indvars.iv = phi i64 [ 0, %.lr.ph.preheader ], [ %indvars.iv.next, %.lr.ph ]
  %20 = getelementptr inbounds nuw %struct.pg_atomic_uint64, ptr %18, i64 %indvars.iv
  store volatile i64 0, ptr %20, align 8
  %indvars.iv.next = add nuw nsw i64 %indvars.iv, 1
  %exitcond.not = icmp eq i64 %indvars.iv.next, %wide.trip.count
  br i1 %exitcond.not, label %._crit_edge, label %.lr.ph, !llvm.loop !15

._crit_edge:                                      ; preds = %.lr.ph, %2
  ret void
}